target datalayout = "e-m:e-p270:32:32-p271:32:32-p272:64:64-i64:64-i128:128-f80:128-n8:16:32:64-S128"
target triple = "x86_64-pc-linux-gnu"

@ff_crop_tab = external hidden constant [2304 x i8], align 16

; Function Attrs: nounwind uwtable
define internal void @put_rv30_tpel8_v_lowpass(ptr noundef %0, ptr noundef %1, i32 noundef %2, i32 noundef %3, i32 noundef %4, i32 noundef %5) #3 {
  %7 = alloca ptr, align 8
  %8 = alloca ptr, align 8
  %9 = alloca i32, align 4
  %10 = alloca i32, align 4
  %11 = alloca i32, align 4
  %12 = alloca i32, align 4
  %13 = alloca i32, align 4
  %14 = alloca ptr, align 8
  %15 = alloca i32, align 4
  %16 = alloca i32, align 4
  %17 = alloca i32, align 4
  %18 = alloca i32, align 4
  %19 = alloca i32, align 4
  %20 = alloca i32, align 4
  %21 = alloca i32, align 4
  %22 = alloca i32, align 4
  %23 = alloca i32, align 4
  %24 = alloca i32, align 4
  %25 = alloca i32, align 4
  %26 = alloca i32, align 4
  store ptr %0, ptr %7, align 8, !tbaa !10
  store ptr %1, ptr %8, align 8, !tbaa !10
  store i32 %2, ptr %9, align 4, !tbaa !14
  store i32 %3, ptr %10, align 4, !tbaa !14
  store i32 %4, ptr %11, align 4, !tbaa !14
  store i32 %5, ptr %12, align 4, !tbaa !14
  call void @llvm.lifetime.start.p0(i64 4, ptr %13) #4
  store i32 8, ptr %13, align 4, !tbaa !14
  call void @llvm.lifetime.start.p0(i64 8, ptr %14) #4
  store ptr getelementptr inbounds (i8, ptr @ff_crop_tab, i64 1024), ptr %14, align 8, !tbaa !10
  call void @llvm.lifetime.start.p0(i64 4, ptr %15) #4
  store i32 0, ptr %15, align 4, !tbaa !14
  br label %27

27:                                               ; preds = %296, %6
  %28 = load i32, ptr %15, align 4, !tbaa !14
  %29 = icmp slt i32 %28, 8
  br i1 %29, label %30, label %299

30:                                               ; preds = %27
  call void @llvm.lifetime.start.p0(i64 4, ptr %16) #4
  %31 = load ptr, ptr %8, align 8, !tbaa !10
  %32 = load i32, ptr %10, align 4, !tbaa !14
  %33 = mul nsw i32 -1, %32
  %34 = sext i32 %33 to i64
  %35 = getelementptr inbounds i8, ptr %31, i64 %34
  %36 = load i8, ptr %35, align 1, !tbaa !16
  %37 = zext i8 %36 to i32
  store i32 %37, ptr %16, align 4, !tbaa !14
  call void @llvm.lifetime.start.p0(i64 4, ptr %17) #4
  %38 = load ptr, ptr %8, align 8, !tbaa !10
  %39 = load i32, ptr %10, align 4, !tbaa !14
  %40 = mul nsw i32 0, %39
  %41 = sext i32 %40 to i64
  %42 = getelementptr inbounds i8, ptr %38, i64 %41
  %43 = load i8, ptr %42, align 1, !tbaa !16
  %44 = zext i8 %43 to i32
  store i32 %44, ptr %17, align 4, !tbaa !14
  call void @llvm.lifetime.start.p0(i64 4, ptr %18) #4
  %45 = load ptr, ptr %8, align 8, !tbaa !10
  %46 = load i32, ptr %10, align 4, !tbaa !14
  %47 = mul nsw i32 1, %46
  %48 = sext i32 %47 to i64
  %49 = getelementptr inbounds i8, ptr %45, i64 %48
  %50 = load i8, ptr %49, align 1, !tbaa !16
  %51 = zext i8 %50 to i32
  store i32 %51, ptr %18, align 4, !tbaa !14
  call void @llvm.lifetime.start.p0(i64 4, ptr %19) #4
  %52 = load ptr, ptr %8, align 8, !tbaa !10
  %53 = load i32, ptr %10, align 4, !tbaa !14
  %54 = mul nsw i32 2, %53
  %55 = sext i32 %54 to i64
  %56 = getelementptr inbounds i8, ptr %52, i64 %55
  %57 = load i8, ptr %56, align 1, !tbaa !16
  %58 = zext i8 %57 to i32
  store i32 %58, ptr %19, align 4, !tbaa !14
  call void @llvm.lifetime.start.p0(i64 4, ptr %20) #4
  %59 = load ptr, ptr %8, align 8, !tbaa !10
  %60 = load i32, ptr %10, align 4, !tbaa !14
  %61 = mul nsw i32 3, %60
  %62 = sext i32 %61 to i64
  %63 = getelementptr inbounds i8, ptr %59, i64 %62
  %64 = load i8, ptr %63, align 1, !tbaa !16
  %65 = zext i8 %64 to i32
  store i32 %65, ptr %20, align 4, !tbaa !14
  call void @llvm.lifetime.start.p0(i64 4, ptr %21) #4
  %66 = load ptr, ptr %8, align 8, !tbaa !10
  %67 = load i32, ptr %10, align 4, !tbaa !14
  %68 = mul nsw i32 4, %67
  %69 = sext i32 %68 to i64
  %70 = getelementptr inbounds i8, ptr %66, i64 %69
  %71 = load i8, ptr %70, align 1, !tbaa !16
  %72 = zext i8 %71 to i32
  store i32 %72, ptr %21, align 4, !tbaa !14
  call void @llvm.lifetime.start.p0(i64 4, ptr %22) #4
  %73 = load ptr, ptr %8, align 8, !tbaa !10
  %74 = load i32, ptr %10, align 4, !tbaa !14
  %75 = mul nsw i32 5, %74
  %76 = sext i32 %75 to i64
  %77 = getelementptr inbounds i8, ptr %73, i64 %76
  %78 = load i8, ptr %77, align 1, !tbaa !16
  %79 = zext i8 %78 to i32
  store i32 %79, ptr %22, align 4, !tbaa !14
  call void @llvm.lifetime.start.p0(i64 4, ptr %23) #4
  %80 = load ptr, ptr %8, align 8, !tbaa !10
  %81 = load i32, ptr %10, align 4, !tbaa !14
  %82 = mul nsw i32 6, %81
  %83 = sext i32 %82 to i64
  %84 = getelementptr inbounds i8, ptr %80, i64 %83
  %85 = load i8, ptr %84, align 1, !tbaa !16
  %86 = zext i8 %85 to i32
  store i32 %86, ptr %23, align 4, !tbaa !14
  call void @llvm.lifetime.start.p0(i64 4, ptr %24) #4
  %87 = load ptr, ptr %8, align 8, !tbaa !10
  %88 = load i32, ptr %10, align 4, !tbaa !14
  %89 = mul nsw i32 7, %88
  %90 = sext i32 %89 to i64
  %91 = getelementptr inbounds i8, ptr %87, i64 %90
  %92 = load i8, ptr %91, align 1, !tbaa !16
  %93 = zext i8 %92 to i32
  store i32 %93, ptr %24, align 4, !tbaa !14
  call void @llvm.lifetime.start.p0(i64 4, ptr %25) #4
  %94 = load ptr, ptr %8, align 8, !tbaa !10
  %95 = load i32, ptr %10, align 4, !tbaa !14
  %96 = mul nsw i32 8, %95
  %97 = sext i32 %96 to i64
  %98 = getelementptr inbounds i8, ptr %94, i64 %97
  %99 = load i8, ptr %98, align 1, !tbaa !16
  %100 = zext i8 %99 to i32
  store i32 %100, ptr %25, align 4, !tbaa !14
  call void @llvm.lifetime.start.p0(i64 4, ptr %26) #4
  %101 = load ptr, ptr %8, align 8, !tbaa !10
  %102 = load i32, ptr %10, align 4, !tbaa !14
  %103 = mul nsw i32 9, %102
  %104 = sext i32 %103 to i64
  %105 = getelementptr inbounds i8, ptr %101, i64 %104
  %106 = load i8, ptr %105, align 1, !tbaa !16
  %107 = zext i8 %106 to i32
  store i32 %107, ptr %26, align 4, !tbaa !14
  %108 = load ptr, ptr %14, align 8, !tbaa !10
  %109 = load i32, ptr %16, align 4, !tbaa !14
  %110 = load i32, ptr %19, align 4, !tbaa !14
  %111 = add nsw i32 %109, %110
  %112 = sub nsw i32 0, %111
  %113 = load i32, ptr %17, align 4, !tbaa !14
  %114 = load i32, ptr %11, align 4, !tbaa !14
  %115 = mul nsw i32 %113, %114
  %116 = add nsw i32 %112, %115
  %117 = load i32, ptr %18, align 4, !tbaa !14
  %118 = load i32, ptr %12, align 4, !tbaa !14
  %119 = mul nsw i32 %117, %118
  %120 = add nsw i32 %116, %119
  %121 = add nsw i32 %120, 8
  %122 = ashr i32 %121, 4
  %123 = sext i32 %122 to i64
  %124 = getelementptr inbounds i8, ptr %108, i64 %123
  %125 = load i8, ptr %124, align 1, !tbaa !16
  %126 = load ptr, ptr %7, align 8, !tbaa !10
  %127 = load i32, ptr %9, align 4, !tbaa !14
  %128 = mul nsw i32 0, %127
  %129 = sext i32 %128 to i64
  %130 = getelementptr inbounds i8, ptr %126, i64 %129
  store i8 %125, ptr %130, align 1, !tbaa !16
  %131 = load ptr, ptr %14, align 8, !tbaa !10
  %132 = load i32, ptr %17, align 4, !tbaa !14
  %133 = load i32, ptr %20, align 4, !tbaa !14
  %134 = add nsw i32 %132, %133
  %135 = sub nsw i32 0, %134
  %136 = load i32, ptr %18, align 4, !tbaa !14
  %137 = load i32, ptr %11, align 4, !tbaa !14
  %138 = mul nsw i32 %136, %137
  %139 = add nsw i32 %135, %138
  %140 = load i32, ptr %19, align 4, !tbaa !14
  %141 = load i32, ptr %12, align 4, !tbaa !14
  %142 = mul nsw i32 %140, %141
  %143 = add nsw i32 %139, %142
  %144 = add nsw i32 %143, 8
  %145 = ashr i32 %144, 4
  %146 = sext i32 %145 to i64
  %147 = getelementptr inbounds i8, ptr %131, i64 %146
  %148 = load i8, ptr %147, align 1, !tbaa !16
  %149 = load ptr, ptr %7, align 8, !tbaa !10
  %150 = load i32, ptr %9, align 4, !tbaa !14
  %151 = mul nsw i32 1, %150
  %152 = sext i32 %151 to i64
  %153 = getelementptr inbounds i8, ptr %149, i64 %152
  store i8 %148, ptr %153, align 1, !tbaa !16
  %154 = load ptr, ptr %14, align 8, !tbaa !10
  %155 = load i32, ptr %18, align 4, !tbaa !14
  %156 = load i32, ptr %21, align 4, !tbaa !14
  %157 = add nsw i32 %155, %156
  %158 = sub nsw i32 0, %157
  %159 = load i32, ptr %19, align 4, !tbaa !14
  %160 = load i32, ptr %11, align 4, !tbaa !14
  %161 = mul nsw i32 %159, %160
  %162 = add nsw i32 %158, %161
  %163 = load i32, ptr %20, align 4, !tbaa !14
  %164 = load i32, ptr %12, align 4, !tbaa !14
  %165 = mul nsw i32 %163, %164
  %166 = add nsw i32 %162, %165
  %167 = add nsw i32 %166, 8
  %168 = ashr i32 %167, 4
  %169 = sext i32 %168 to i64
  %170 = getelementptr inbounds i8, ptr %154, i64 %169
  %171 = load i8, ptr %170, align 1, !tbaa !16
  %172 = load ptr, ptr %7, align 8, !tbaa !10
  %173 = load i32, ptr %9, align 4, !tbaa !14
  %174 = mul nsw i32 2, %173
  %175 = sext i32 %174 to i64
  %176 = getelementptr inbounds i8, ptr %172, i64 %175
  store i8 %171, ptr %176, align 1, !tbaa !16
  %177 = load ptr, ptr %14, align 8, !tbaa !10
  %178 = load i32, ptr %19, align 4, !tbaa !14
  %179 = load i32, ptr %22, align 4, !tbaa !14
  %180 = add nsw i32 %178, %179
  %181 = sub nsw i32 0, %180
  %182 = load i32, ptr %20, align 4, !tbaa !14
  %183 = load i32, ptr %11, align 4, !tbaa !14
  %184 = mul nsw i32 %182, %183
  %185 = add nsw i32 %181, %184
  %186 = load i32, ptr %21, align 4, !tbaa !14
  %187 = load i32, ptr %12, align 4, !tbaa !14
  %188 = mul nsw i32 %186, %187
  %189 = add nsw i32 %185, %188
  %190 = add nsw i32 %189, 8
  %191 = ashr i32 %190, 4
  %192 = sext i32 %191 to i64
  %193 = getelementptr inbounds i8, ptr %177, i64 %192
  %194 = load i8, ptr %193, align 1, !tbaa !16
  %195 = load ptr, ptr %7, align 8, !tbaa !10
  %196 = load i32, ptr %9, align 4, !tbaa !14
  %197 = mul nsw i32 3, %196
  %198 = sext i32 %197 to i64
  %199 = getelementptr inbounds i8, ptr %195, i64 %198
  store i8 %194, ptr %199, align 1, !tbaa !16
  %200 = load ptr, ptr %14, align 8, !tbaa !10
  %201 = load i32, ptr %20, align 4, !tbaa !14
  %202 = load i32, ptr %23, align 4, !tbaa !14
  %203 = add nsw i32 %201, %202
  %204 = sub nsw i32 0, %203
  %205 = load i32, ptr %21, align 4, !tbaa !14
  %206 = load i32, ptr %11, align 4, !tbaa !14
  %207 = mul nsw i32 %205, %206
  %208 = add nsw i32 %204, %207
  %209 = load i32, ptr %22, align 4, !tbaa !14
  %210 = load i32, ptr %12, align 4, !tbaa !14
  %211 = mul nsw i32 %209, %210
  %212 = add nsw i32 %208, %211
  %213 = add nsw i32 %212, 8
  %214 = ashr i32 %213, 4
  %215 = sext i32 %214 to i64
  %216 = getelementptr inbounds i8, ptr %200, i64 %215
  %217 = load i8, ptr %216, align 1, !tbaa !16
  %218 = load ptr, ptr %7, align 8, !tbaa !10
  %219 = load i32, ptr %9, align 4, !tbaa !14
  %220 = mul nsw i32 4, %219
  %221 = sext i32 %220 to i64
  %222 = getelementptr inbounds i8, ptr %218, i64 %221
  store i8 %217, ptr %222, align 1, !tbaa !16
  %223 = load ptr, ptr %14, align 8, !tbaa !10
  %224 = load i32, ptr %21, align 4, !tbaa !14
  %225 = load i32, ptr %24, align 4, !tbaa !14
  %226 = add nsw i32 %224, %225
  %227 = sub nsw i32 0, %226
  %228 = load i32, ptr %22, align 4, !tbaa !14
  %229 = load i32, ptr %11, align 4, !tbaa !14
  %230 = mul nsw i32 %228, %229
  %231 = add nsw i32 %227, %230
  %232 = load i32, ptr %23, align 4, !tbaa !14
  %233 = load i32, ptr %12, align 4, !tbaa !14
  %234 = mul nsw i32 %232, %233
  %235 = add nsw i32 %231, %234
  %236 = add nsw i32 %235, 8
  %237 = ashr i32 %236, 4
  %238 = sext i32 %237 to i64
  %239 = getelementptr inbounds i8, ptr %223, i64 %238
  %240 = load i8, ptr %239, align 1, !tbaa !16
  %241 = load ptr, ptr %7, align 8, !tbaa !10
  %242 = load i32, ptr %9, align 4, !tbaa !14
  %243 = mul nsw i32 5, %242
  %244 = sext i32 %243 to i64
  %245 = getelementptr inbounds i8, ptr %241, i64 %244
  store i8 %240, ptr %245, align 1, !tbaa !16
  %246 = load ptr, ptr %14, align 8, !tbaa !10
  %247 = load i32, ptr %22, align 4, !tbaa !14
  %248 = load i32, ptr %25, align 4, !tbaa !14
  %249 = add nsw i32 %247, %248
  %250 = sub nsw i32 0, %249
  %251 = load i32, ptr %23, align 4, !tbaa !14
  %252 = load i32, ptr %11, align 4, !tbaa !14
  %253 = mul nsw i32 %251, %252
  %254 = add nsw i32 %250, %253
  %255 = load i32, ptr %24, align 4, !tbaa !14
  %256 = load i32, ptr %12, align 4, !tbaa !14
  %257 = mul nsw i32 %255, %256
  %258 = add nsw i32 %254, %257
  %259 = add nsw i32 %258, 8
  %260 = ashr i32 %259, 4
  %261 = sext i32 %260 to i64
  %262 = getelementptr inbounds i8, ptr %246, i64 %261
  %263 = load i8, ptr %262, align 1, !tbaa !16
  %264 = load ptr, ptr %7, align 8, !tbaa !10
  %265 = load i32, ptr %9, align 4, !tbaa !14
  %266 = mul nsw i32 6, %265
  %267 = sext i32 %266 to i64
  %268 = getelementptr inbounds i8, ptr %264, i64 %267
  store i8 %263, ptr %268, align 1, !tbaa !16
  %269 = load ptr, ptr %14, align 8, !tbaa !10
  %270 = load i32, ptr %23, align 4, !tbaa !14
  %271 = load i32, ptr %26, align 4, !tbaa !14
  %272 = add nsw i32 %270, %271
  %273 = sub nsw i32 0, %272
  %274 = load i32, ptr %24, align 4, !tbaa !14
  %275 = load i32, ptr %11, align 4, !tbaa !14
  %276 = mul nsw i32 %274, %275
  %277 = add nsw i32 %273, %276
  %278 = load i32, ptr %25, align 4, !tbaa !14
  %279 = load i32, ptr %12, align 4, !tbaa !14
  %280 = mul nsw i32 %278, %279
  %281 = add nsw i32 %277, %280
  %282 = add nsw i32 %281, 8
  %283 = ashr i32 %282, 4
  %284 = sext i32 %283 to i64
  %285 = getelementptr inbounds i8, ptr %269, i64 %284
  %286 = load i8, ptr %285, align 1, !tbaa !16
  %287 = load ptr, ptr %7, align 8, !tbaa !10
  %288 = load i32, ptr %9, align 4, !tbaa !14
  %289 = mul nsw i32 7, %288
  %290 = sext i32 %289 to i64
  %291 = getelementptr inbounds i8, ptr %287, i64 %290
  store i8 %286, ptr %291, align 1, !tbaa !16
  %292 = load ptr, ptr %7, align 8, !tbaa !10
  %293 = getelementptr inbounds nuw i8, ptr %292, i32 1
  store ptr %293, ptr %7, align 8, !tbaa !10
  %294 = load ptr, ptr %8, align 8, !tbaa !10
  %295 = getelementptr inbounds nuw i8, ptr %294, i32 1
  store ptr %295, ptr %8, align 8, !tbaa !10
  call void @llvm.lifetime.end.p0(i64 4, ptr %26) #4
  call void @llvm.lifetime.end.p0(i64 4, ptr %25) #4
  call void @llvm.lifetime.end.p0(i64 4, ptr %24) #4
  call void @llvm.lifetime.end.p0(i64 4, ptr %23) #4
  call void @llvm.lifetime.end.p0(i64 4, ptr %22) #4
  call void @llvm.lifetime.end.p0(i64 4, ptr %21) #4
  call void @llvm.lifetime.end.p0(i64 4, ptr %20) #4
  call void @llvm.lifetime.end.p0(i64 4, ptr %19) #4
  call void @llvm.lifetime.end.p0(i64 4, ptr %18) #4
  call void @llvm.lifetime.end.p0(i64 4, ptr %17) #4
  call void @llvm.lifetime.end.p0(i64 4, ptr %16) #4
  br label %296

296:                                              ; preds = %30
  %297 = load i32, ptr %15, align 4, !tbaa !14
  %298 = add nsw i32 %297, 1
  store i32 %298, ptr %15, align 4, !tbaa !14
  br label %27, !llvm.loop !19

299:                                              ; preds = %27
  call void @llvm.lifetime.end.p0(i64 4, ptr %15) #4
  call void @llvm.lifetime.end.p0(i64 8, ptr %14) #4
  call void @llvm.lifetime.end.p0(i64 4, ptr %13) #4
  ret void
}