; Function Attrs: nofree norecurse nosync nounwind memory(argmem: readwrite) uwtable
define internal fastcc void @put_rv30_tpel8_v_lowpass(ptr noundef writeonly captures(none) %0, ptr noundef readonly captures(none) %1, i32 noundef %2, i32 noundef %3, i32 noundef range(i32 6, 13) %4, i32 noundef range(i32 6, 13) %5) unnamed_addr #3 {
  %7 = sub nsw i32 0, %3
  %8 = sext i32 %7 to i64
  %9 = sext i32 %3 to i64
  %10 = shl nsw i32 %3, 1
  %11 = sext i32 %10 to i64
  %12 = mul nsw i32 %3, 3
  %13 = sext i32 %12 to i64
  %14 = shl nsw i32 %3, 2
  %15 = sext i32 %14 to i64
  %16 = mul nsw i32 %3, 5
  %17 = sext i32 %16 to i64
  %18 = mul nsw i32 %3, 6
  %19 = sext i32 %18 to i64
  %20 = mul nsw i32 %3, 7
  %21 = sext i32 %20 to i64
  %22 = shl nsw i32 %3, 3
  %23 = sext i32 %22 to i64
  %24 = mul nsw i32 %3, 9
  %25 = sext i32 %24 to i64
  %26 = sext i32 %2 to i64
  %27 = shl nsw i32 %2, 1
  %28 = sext i32 %27 to i64
  %29 = mul nsw i32 %2, 3
  %30 = sext i32 %29 to i64
  %31 = shl nsw i32 %2, 2
  %32 = sext i32 %31 to i64
  %33 = mul nsw i32 %2, 5
  %34 = sext i32 %33 to i64
  %35 = mul nsw i32 %2, 6
  %36 = sext i32 %35 to i64
  %37 = mul nsw i32 %2, 7
  %38 = sext i32 %37 to i64
  br label %39

39:                                               ; preds = %6, %39
  %.0119 = phi ptr [ %0, %6 ], [ %159, %39 ]
  %.097118 = phi ptr [ %1, %6 ], [ %160, %39 ]
  %.098117 = phi i32 [ 0, %6 ], [ %161, %39 ]
  %40 = getelementptr inbounds i8, ptr %.097118, i64 %8
  %41 = load i8, ptr %40, align 1, !tbaa !8
  %42 = zext i8 %41 to i32
  %43 = load i8, ptr %.097118, align 1, !tbaa !8
  %44 = zext i8 %43 to i32
  %45 = getelementptr inbounds i8, ptr %.097118, i64 %9
  %46 = load i8, ptr %45, align 1, !tbaa !8
  %47 = zext i8 %46 to i32
  %48 = getelementptr inbounds i8, ptr %.097118, i64 %11
  %49 = load i8, ptr %48, align 1, !tbaa !8
  %50 = zext i8 %49 to i32
  %51 = getelementptr inbounds i8, ptr %.097118, i64 %13
  %52 = load i8, ptr %51, align 1, !tbaa !8
  %53 = zext i8 %52 to i32
  %54 = getelementptr inbounds i8, ptr %.097118, i64 %15
  %55 = load i8, ptr %54, align 1, !tbaa !8
  %56 = zext i8 %55 to i32
  %57 = getelementptr inbounds i8, ptr %.097118, i64 %17
  %58 = load i8, ptr %57, align 1, !tbaa !8
  %59 = zext i8 %58 to i32
  %60 = getelementptr inbounds i8, ptr %.097118, i64 %19
  %61 = load i8, ptr %60, align 1, !tbaa !8
  %62 = zext i8 %61 to i32
  %63 = getelementptr inbounds i8, ptr %.097118, i64 %21
  %64 = load i8, ptr %63, align 1, !tbaa !8
  %65 = zext i8 %64 to i32
  %66 = getelementptr inbounds i8, ptr %.097118, i64 %23
  %67 = load i8, ptr %66, align 1, !tbaa !8
  %68 = zext i8 %67 to i32
  %69 = getelementptr inbounds i8, ptr %.097118, i64 %25
  %70 = load i8, ptr %69, align 1, !tbaa !8
  %71 = zext i8 %70 to i32
  %72 = mul nuw nsw i32 %4, %44
  %73 = mul nuw nsw i32 %5, %47
  %74 = add nuw nsw i32 %72, 8
  %75 = add nuw nsw i32 %42, %50
  %76 = sub nsw i32 %74, %75
  %77 = add nsw i32 %76, %73
  %78 = ashr i32 %77, 4
  %79 = sext i32 %78 to i64
  %80 = getelementptr inbounds i8, ptr getelementptr inbounds nuw (i8, ptr @ff_crop_tab, i64 1024), i64 %79
  %81 = load i8, ptr %80, align 1, !tbaa !8
  store i8 %81, ptr %.0119, align 1, !tbaa !8
  %82 = mul nuw nsw i32 %4, %47
  %83 = mul nuw nsw i32 %5, %50
  %84 = add nuw nsw i32 %82, 8
  %85 = add nuw nsw i32 %44, %53
  %86 = sub nsw i32 %84, %85
  %87 = add nsw i32 %86, %83
  %88 = ashr i32 %87, 4
  %89 = sext i32 %88 to i64
  %90 = getelementptr inbounds i8, ptr getelementptr inbounds nuw (i8, ptr @ff_crop_tab, i64 1024), i64 %89
  %91 = load i8, ptr %90, align 1, !tbaa !8
  %92 = getelementptr inbounds i8, ptr %.0119, i64 %26
  store i8 %91, ptr %92, align 1, !tbaa !8
  %93 = mul nuw nsw i32 %4, %50
  %94 = mul nuw nsw i32 %5, %53
  %95 = add nuw nsw i32 %93, 8
  %96 = add nuw nsw i32 %47, %56
  %97 = sub nsw i32 %95, %96
  %98 = add nsw i32 %97, %94
  %99 = ashr i32 %98, 4
  %100 = sext i32 %99 to i64
  %101 = getelementptr inbounds i8, ptr getelementptr inbounds nuw (i8, ptr @ff_crop_tab, i64 1024), i64 %100
  %102 = load i8, ptr %101, align 1, !tbaa !8
  %103 = getelementptr inbounds i8, ptr %.0119, i64 %28
  store i8 %102, ptr %103, align 1, !tbaa !8
  %104 = mul nuw nsw i32 %4, %53
  %105 = mul nuw nsw i32 %5, %56
  %106 = add nuw nsw i32 %104, 8
  %107 = add nuw nsw i32 %50, %59
  %108 = sub nsw i32 %106, %107
  %109 = add nsw i32 %108, %105
  %110 = ashr i32 %109, 4
  %111 = sext i32 %110 to i64
  %112 = getelementptr inbounds i8, ptr getelementptr inbounds nuw (i8, ptr @ff_crop_tab, i64 1024), i64 %111
  %113 = load i8, ptr %112, align 1, !tbaa !8
  %114 = getelementptr inbounds i8, ptr %.0119, i64 %30
  store i8 %113, ptr %114, align 1, !tbaa !8
  %115 = mul nuw nsw i32 %4, %56
  %116 = mul nuw nsw i32 %5, %59
  %117 = add nuw nsw i32 %115, 8
  %118 = add nuw nsw i32 %53, %62
  %119 = sub nsw i32 %117, %118
  %120 = add nsw i32 %119, %116
  %121 = ashr i32 %120, 4
  %122 = sext i32 %121 to i64
  %123 = getelementptr inbounds i8, ptr getelementptr inbounds nuw (i8, ptr @ff_crop_tab, i64 1024), i64 %122
  %124 = load i8, ptr %123, align 1, !tbaa !8
  %125 = getelementptr inbounds i8, ptr %.0119, i64 %32
  store i8 %124, ptr %125, align 1, !tbaa !8
  %126 = mul nuw nsw i32 %4, %59
  %127 = mul nuw nsw i32 %5, %62
  %128 = add nuw nsw i32 %126, 8
  %129 = add nuw nsw i32 %56, %65
  %130 = sub nsw i32 %128, %129
  %131 = add nsw i32 %130, %127
  %132 = ashr i32 %131, 4
  %133 = sext i32 %132 to i64
  %134 = getelementptr inbounds i8, ptr getelementptr inbounds nuw (i8, ptr @ff_crop_tab, i64 1024), i64 %133
  %135 = load i8, ptr %134, align 1, !tbaa !8
  %136 = getelementptr inbounds i8, ptr %.0119, i64 %34
  store i8 %135, ptr %136, align 1, !tbaa !8
  %137 = mul nuw nsw i32 %4, %62
  %138 = mul nuw nsw i32 %5, %65
  %139 = add nuw nsw i32 %137, 8
  %140 = add nuw nsw i32 %59, %68
  %141 = sub nsw i32 %139, %140
  %142 = add nsw i32 %141, %138
  %143 = ashr i32 %142, 4
  %144 = sext i32 %143 to i64
  %145 = getelementptr inbounds i8, ptr getelementptr inbounds nuw (i8, ptr @ff_crop_tab, i64 1024), i64 %144
  %146 = load i8, ptr %145, align 1, !tbaa !8
  %147 = getelementptr inbounds i8, ptr %.0119, i64 %36
  store i8 %146, ptr %147, align 1, !tbaa !8
  %148 = mul nuw nsw i32 %4, %65
  %149 = mul nuw nsw i32 %5, %68
  %150 = add nuw nsw i32 %148, 8
  %151 = add nuw nsw i32 %62, %71
  %152 = sub nsw i32 %150, %151
  %153 = add nsw i32 %152, %149
  %154 = ashr i32 %153, 4
  %155 = sext i32 %154 to i64
  %156 = getelementptr inbounds i8, ptr getelementptr inbounds nuw (i8, ptr @ff_crop_tab, i64 1024), i64 %155
  %157 = load i8, ptr %156, align 1, !tbaa !8
  %158 = getelementptr inbounds i8, ptr %.0119, i64 %38
  store i8 %157, ptr %158, align 1, !tbaa !8
  %159 = getelementptr inbounds nuw i8, ptr %.0119, i64 1
  %160 = getelementptr inbounds nuw i8, ptr %.097118, i64 1
  %161 = add nuw nsw i32 %.098117, 1
  %exitcond.not = icmp eq i32 %161, 8
  br i1 %exitcond.not, label %162, label %39, !llvm.loop !27

162:                                              ; preds = %39
  ret void
}